ARM GAS  C:\msys64\tmp\ccH6eqMr.s 			page 1


   1              		.cpu cortex-m3
   2              		.eabi_attribute 20, 1
   3              		.eabi_attribute 21, 1
   4              		.eabi_attribute 23, 3
   5              		.eabi_attribute 24, 1
   6              		.eabi_attribute 25, 1
   7              		.eabi_attribute 26, 1
   8              		.eabi_attribute 30, 1
   9              		.eabi_attribute 34, 1
  10              		.eabi_attribute 18, 4
  11              		.file	"main.c"
  12              		.text
  13              	.Ltext0:
  14              		.cfi_sections	.debug_frame
  15              		.section	.text.MX_GPIO_Init,"ax",%progbits
  16              		.align	1
  17              		.syntax unified
  18              		.thumb
  19              		.thumb_func
  20              		.fpu softvfp
  22              	MX_GPIO_Init:
  23              	.LFB68:
  24              		.file 1 "Src/main.c"
   1:Src/main.c    **** /* USER CODE BEGIN Header */
   2:Src/main.c    **** /**
   3:Src/main.c    ****   ******************************************************************************
   4:Src/main.c    ****   * @file           : main.c
   5:Src/main.c    ****   * @brief          : Main program body
   6:Src/main.c    ****   ******************************************************************************
   7:Src/main.c    ****   * @attention
   8:Src/main.c    ****   *
   9:Src/main.c    ****   * <h2><center>&copy; Copyright (c) 2021 STMicroelectronics.
  10:Src/main.c    ****   * All rights reserved.</center></h2>
  11:Src/main.c    ****   *
  12:Src/main.c    ****   * This software component is licensed by ST under BSD 3-Clause license,
  13:Src/main.c    ****   * the "License"; You may not use this file except in compliance with the
  14:Src/main.c    ****   * License. You may obtain a copy of the License at:
  15:Src/main.c    ****   *                        opensource.org/licenses/BSD-3-Clause
  16:Src/main.c    ****   *
  17:Src/main.c    ****   ******************************************************************************
  18:Src/main.c    ****   */
  19:Src/main.c    **** /* USER CODE END Header */
  20:Src/main.c    **** 
  21:Src/main.c    **** /* Includes ------------------------------------------------------------------*/
  22:Src/main.c    **** #include "main.h"
  23:Src/main.c    **** 
  24:Src/main.c    **** /* Private includes ----------------------------------------------------------*/
  25:Src/main.c    **** /* USER CODE BEGIN Includes */
  26:Src/main.c    **** 
  27:Src/main.c    **** /* USER CODE END Includes */
  28:Src/main.c    **** 
  29:Src/main.c    **** /* Private typedef -----------------------------------------------------------*/
  30:Src/main.c    **** /* USER CODE BEGIN PTD */
  31:Src/main.c    **** 
  32:Src/main.c    **** /* USER CODE END PTD */
  33:Src/main.c    **** 
  34:Src/main.c    **** /* Private define ------------------------------------------------------------*/
ARM GAS  C:\msys64\tmp\ccH6eqMr.s 			page 2


  35:Src/main.c    **** /* USER CODE BEGIN PD */
  36:Src/main.c    **** 
  37:Src/main.c    **** /* USER CODE END PD */
  38:Src/main.c    **** 
  39:Src/main.c    **** /* Private macro -------------------------------------------------------------*/
  40:Src/main.c    **** /* USER CODE BEGIN PM */
  41:Src/main.c    **** 
  42:Src/main.c    **** /* USER CODE END PM */
  43:Src/main.c    **** 
  44:Src/main.c    **** /* Private variables ---------------------------------------------------------*/
  45:Src/main.c    **** 
  46:Src/main.c    **** /* USER CODE BEGIN PV */
  47:Src/main.c    **** 
  48:Src/main.c    **** /* USER CODE END PV */
  49:Src/main.c    **** 
  50:Src/main.c    **** /* Private function prototypes -----------------------------------------------*/
  51:Src/main.c    **** void SystemClock_Config(void);
  52:Src/main.c    **** static void MX_GPIO_Init(void);
  53:Src/main.c    **** /* USER CODE BEGIN PFP */
  54:Src/main.c    **** 
  55:Src/main.c    **** /* USER CODE END PFP */
  56:Src/main.c    **** 
  57:Src/main.c    **** /* Private user code ---------------------------------------------------------*/
  58:Src/main.c    **** /* USER CODE BEGIN 0 */
  59:Src/main.c    **** 
  60:Src/main.c    **** /* USER CODE END 0 */
  61:Src/main.c    **** 
  62:Src/main.c    **** /**
  63:Src/main.c    ****   * @brief  The application entry point.
  64:Src/main.c    ****   * @retval int
  65:Src/main.c    ****   */
  66:Src/main.c    **** int main(void)
  67:Src/main.c    **** {
  68:Src/main.c    ****   /* USER CODE BEGIN 1 */
  69:Src/main.c    **** 
  70:Src/main.c    ****   /* USER CODE END 1 */
  71:Src/main.c    ****   
  72:Src/main.c    **** 
  73:Src/main.c    ****   /* MCU Configuration--------------------------------------------------------*/
  74:Src/main.c    **** 
  75:Src/main.c    ****   /* Reset of all peripherals, Initializes the Flash interface and the Systick. */
  76:Src/main.c    ****   HAL_Init();
  77:Src/main.c    **** 
  78:Src/main.c    ****   /* USER CODE BEGIN Init */
  79:Src/main.c    **** 
  80:Src/main.c    ****   /* USER CODE END Init */
  81:Src/main.c    **** 
  82:Src/main.c    ****   /* Configure the system clock */
  83:Src/main.c    ****   SystemClock_Config();
  84:Src/main.c    **** 
  85:Src/main.c    ****   /* USER CODE BEGIN SysInit */
  86:Src/main.c    **** 
  87:Src/main.c    ****   /* USER CODE END SysInit */
  88:Src/main.c    **** 
  89:Src/main.c    ****   /* Initialize all configured peripherals */
  90:Src/main.c    ****   MX_GPIO_Init();
  91:Src/main.c    ****   /* USER CODE BEGIN 2 */
ARM GAS  C:\msys64\tmp\ccH6eqMr.s 			page 3


  92:Src/main.c    **** 
  93:Src/main.c    ****   /* USER CODE END 2 */
  94:Src/main.c    **** 
  95:Src/main.c    ****   /* Infinite loop */
  96:Src/main.c    ****   /* USER CODE BEGIN WHILE */
  97:Src/main.c    ****   while (1)
  98:Src/main.c    ****   {
  99:Src/main.c    ****     /* USER CODE END WHILE */
 100:Src/main.c    **** 
 101:Src/main.c    ****     /* USER CODE BEGIN 3 */
 102:Src/main.c    ****   }
 103:Src/main.c    ****   /* USER CODE END 3 */
 104:Src/main.c    **** }
 105:Src/main.c    **** 
 106:Src/main.c    **** /**
 107:Src/main.c    ****   * @brief System Clock Configuration
 108:Src/main.c    ****   * @retval None
 109:Src/main.c    ****   */
 110:Src/main.c    **** void SystemClock_Config(void)
 111:Src/main.c    **** {
 112:Src/main.c    ****   RCC_OscInitTypeDef RCC_OscInitStruct = {0};
 113:Src/main.c    ****   RCC_ClkInitTypeDef RCC_ClkInitStruct = {0};
 114:Src/main.c    **** 
 115:Src/main.c    ****   /** Initializes the CPU, AHB and APB busses clocks 
 116:Src/main.c    ****   */
 117:Src/main.c    ****   RCC_OscInitStruct.OscillatorType = RCC_OSCILLATORTYPE_HSI;
 118:Src/main.c    ****   RCC_OscInitStruct.HSIState = RCC_HSI_ON;
 119:Src/main.c    ****   RCC_OscInitStruct.HSICalibrationValue = RCC_HSICALIBRATION_DEFAULT;
 120:Src/main.c    ****   RCC_OscInitStruct.PLL.PLLState = RCC_PLL_NONE;
 121:Src/main.c    ****   if (HAL_RCC_OscConfig(&RCC_OscInitStruct) != HAL_OK)
 122:Src/main.c    ****   {
 123:Src/main.c    ****     Error_Handler();
 124:Src/main.c    ****   }
 125:Src/main.c    ****   /** Initializes the CPU, AHB and APB busses clocks 
 126:Src/main.c    ****   */
 127:Src/main.c    ****   RCC_ClkInitStruct.ClockType = RCC_CLOCKTYPE_HCLK|RCC_CLOCKTYPE_SYSCLK
 128:Src/main.c    ****                               |RCC_CLOCKTYPE_PCLK1|RCC_CLOCKTYPE_PCLK2;
 129:Src/main.c    ****   RCC_ClkInitStruct.SYSCLKSource = RCC_SYSCLKSOURCE_HSI;
 130:Src/main.c    ****   RCC_ClkInitStruct.AHBCLKDivider = RCC_SYSCLK_DIV1;
 131:Src/main.c    ****   RCC_ClkInitStruct.APB1CLKDivider = RCC_HCLK_DIV1;
 132:Src/main.c    ****   RCC_ClkInitStruct.APB2CLKDivider = RCC_HCLK_DIV1;
 133:Src/main.c    **** 
 134:Src/main.c    ****   if (HAL_RCC_ClockConfig(&RCC_ClkInitStruct, FLASH_LATENCY_0) != HAL_OK)
 135:Src/main.c    ****   {
 136:Src/main.c    ****     Error_Handler();
 137:Src/main.c    ****   }
 138:Src/main.c    **** }
 139:Src/main.c    **** 
 140:Src/main.c    **** /**
 141:Src/main.c    ****   * @brief GPIO Initialization Function
 142:Src/main.c    ****   * @param None
 143:Src/main.c    ****   * @retval None
 144:Src/main.c    ****   */
 145:Src/main.c    **** static void MX_GPIO_Init(void)
 146:Src/main.c    **** {
  25              		.loc 1 146 0
  26              		.cfi_startproc
ARM GAS  C:\msys64\tmp\ccH6eqMr.s 			page 4


  27              		@ args = 0, pretend = 0, frame = 24
  28              		@ frame_needed = 0, uses_anonymous_args = 0
  29 0000 2DE9F041 		push	{r4, r5, r6, r7, r8, lr}
  30              	.LCFI0:
  31              		.cfi_def_cfa_offset 24
  32              		.cfi_offset 4, -24
  33              		.cfi_offset 5, -20
  34              		.cfi_offset 6, -16
  35              		.cfi_offset 7, -12
  36              		.cfi_offset 8, -8
  37              		.cfi_offset 14, -4
  38 0004 86B0     		sub	sp, sp, #24
  39              	.LCFI1:
  40              		.cfi_def_cfa_offset 48
 147:Src/main.c    ****   GPIO_InitTypeDef GPIO_InitStruct = {0};
  41              		.loc 1 147 0
  42 0006 0024     		movs	r4, #0
  43 0008 0294     		str	r4, [sp, #8]
  44 000a 0394     		str	r4, [sp, #12]
  45 000c 0494     		str	r4, [sp, #16]
  46 000e 0594     		str	r4, [sp, #20]
  47              	.LBB2:
 148:Src/main.c    **** 
 149:Src/main.c    ****   /* GPIO Ports Clock Enable */
 150:Src/main.c    ****   __HAL_RCC_GPIOA_CLK_ENABLE();
  48              		.loc 1 150 0
  49 0010 1C4B     		ldr	r3, .L3
  50 0012 9A69     		ldr	r2, [r3, #24]
  51 0014 42F00402 		orr	r2, r2, #4
  52 0018 9A61     		str	r2, [r3, #24]
  53 001a 9A69     		ldr	r2, [r3, #24]
  54 001c 02F00402 		and	r2, r2, #4
  55 0020 0092     		str	r2, [sp]
  56 0022 009A     		ldr	r2, [sp]
  57              	.LBE2:
  58              	.LBB3:
 151:Src/main.c    ****   __HAL_RCC_GPIOD_CLK_ENABLE();
  59              		.loc 1 151 0
  60 0024 9A69     		ldr	r2, [r3, #24]
  61 0026 42F02002 		orr	r2, r2, #32
  62 002a 9A61     		str	r2, [r3, #24]
  63 002c 9B69     		ldr	r3, [r3, #24]
  64 002e 03F02003 		and	r3, r3, #32
  65 0032 0193     		str	r3, [sp, #4]
  66 0034 019B     		ldr	r3, [sp, #4]
  67              	.LBE3:
 152:Src/main.c    **** 
 153:Src/main.c    ****   /*Configure GPIO pin Output Level */
 154:Src/main.c    ****   HAL_GPIO_WritePin(GPIOA, GPIO_PIN_8, GPIO_PIN_RESET);
  68              		.loc 1 154 0
  69 0036 DFF85480 		ldr	r8, .L3+8
  70 003a 2246     		mov	r2, r4
  71 003c 4FF48071 		mov	r1, #256
  72 0040 4046     		mov	r0, r8
  73 0042 FFF7FEFF 		bl	HAL_GPIO_WritePin
  74              	.LVL0:
 155:Src/main.c    **** 
ARM GAS  C:\msys64\tmp\ccH6eqMr.s 			page 5


 156:Src/main.c    ****   /*Configure GPIO pin Output Level */
 157:Src/main.c    ****   HAL_GPIO_WritePin(GPIOD, GPIO_PIN_2, GPIO_PIN_RESET);
  75              		.loc 1 157 0
  76 0046 104D     		ldr	r5, .L3+4
  77 0048 2246     		mov	r2, r4
  78 004a 0421     		movs	r1, #4
  79 004c 2846     		mov	r0, r5
  80 004e FFF7FEFF 		bl	HAL_GPIO_WritePin
  81              	.LVL1:
 158:Src/main.c    **** 
 159:Src/main.c    ****   /*Configure GPIO pin : PA8 */
 160:Src/main.c    ****   GPIO_InitStruct.Pin = GPIO_PIN_8;
  82              		.loc 1 160 0
  83 0052 4FF48073 		mov	r3, #256
  84 0056 0293     		str	r3, [sp, #8]
 161:Src/main.c    ****   GPIO_InitStruct.Mode = GPIO_MODE_OUTPUT_PP;
  85              		.loc 1 161 0
  86 0058 0127     		movs	r7, #1
  87 005a 0397     		str	r7, [sp, #12]
 162:Src/main.c    ****   GPIO_InitStruct.Pull = GPIO_NOPULL;
  88              		.loc 1 162 0
  89 005c 0494     		str	r4, [sp, #16]
 163:Src/main.c    ****   GPIO_InitStruct.Speed = GPIO_SPEED_FREQ_HIGH;
  90              		.loc 1 163 0
  91 005e 0326     		movs	r6, #3
  92 0060 0596     		str	r6, [sp, #20]
 164:Src/main.c    ****   HAL_GPIO_Init(GPIOA, &GPIO_InitStruct);
  93              		.loc 1 164 0
  94 0062 02A9     		add	r1, sp, #8
  95 0064 4046     		mov	r0, r8
  96 0066 FFF7FEFF 		bl	HAL_GPIO_Init
  97              	.LVL2:
 165:Src/main.c    **** 
 166:Src/main.c    ****   /*Configure GPIO pin : PD2 */
 167:Src/main.c    ****   GPIO_InitStruct.Pin = GPIO_PIN_2;
  98              		.loc 1 167 0
  99 006a 0423     		movs	r3, #4
 100 006c 0293     		str	r3, [sp, #8]
 168:Src/main.c    ****   GPIO_InitStruct.Mode = GPIO_MODE_OUTPUT_PP;
 101              		.loc 1 168 0
 102 006e 0397     		str	r7, [sp, #12]
 169:Src/main.c    ****   GPIO_InitStruct.Pull = GPIO_NOPULL;
 103              		.loc 1 169 0
 104 0070 0494     		str	r4, [sp, #16]
 170:Src/main.c    ****   GPIO_InitStruct.Speed = GPIO_SPEED_FREQ_HIGH;
 105              		.loc 1 170 0
 106 0072 0596     		str	r6, [sp, #20]
 171:Src/main.c    ****   HAL_GPIO_Init(GPIOD, &GPIO_InitStruct);
 107              		.loc 1 171 0
 108 0074 02A9     		add	r1, sp, #8
 109 0076 2846     		mov	r0, r5
 110 0078 FFF7FEFF 		bl	HAL_GPIO_Init
 111              	.LVL3:
 172:Src/main.c    **** 
 173:Src/main.c    **** }
 112              		.loc 1 173 0
 113 007c 06B0     		add	sp, sp, #24
ARM GAS  C:\msys64\tmp\ccH6eqMr.s 			page 6


 114              	.LCFI2:
 115              		.cfi_def_cfa_offset 24
 116              		@ sp needed
 117 007e BDE8F081 		pop	{r4, r5, r6, r7, r8, pc}
 118              	.L4:
 119 0082 00BF     		.align	2
 120              	.L3:
 121 0084 00100240 		.word	1073876992
 122 0088 00140140 		.word	1073812480
 123 008c 00080140 		.word	1073809408
 124              		.cfi_endproc
 125              	.LFE68:
 127              		.section	.text.SystemClock_Config,"ax",%progbits
 128              		.align	1
 129              		.global	SystemClock_Config
 130              		.syntax unified
 131              		.thumb
 132              		.thumb_func
 133              		.fpu softvfp
 135              	SystemClock_Config:
 136              	.LFB67:
 111:Src/main.c    ****   RCC_OscInitTypeDef RCC_OscInitStruct = {0};
 137              		.loc 1 111 0
 138              		.cfi_startproc
 139              		@ args = 0, pretend = 0, frame = 64
 140              		@ frame_needed = 0, uses_anonymous_args = 0
 141 0000 10B5     		push	{r4, lr}
 142              	.LCFI3:
 143              		.cfi_def_cfa_offset 8
 144              		.cfi_offset 4, -8
 145              		.cfi_offset 14, -4
 146 0002 90B0     		sub	sp, sp, #64
 147              	.LCFI4:
 148              		.cfi_def_cfa_offset 72
 112:Src/main.c    ****   RCC_ClkInitTypeDef RCC_ClkInitStruct = {0};
 149              		.loc 1 112 0
 150 0004 2422     		movs	r2, #36
 151 0006 0021     		movs	r1, #0
 152 0008 07A8     		add	r0, sp, #28
 153 000a FFF7FEFF 		bl	memset
 154              	.LVL4:
 113:Src/main.c    **** 
 155              		.loc 1 113 0
 156 000e 0024     		movs	r4, #0
 157 0010 0194     		str	r4, [sp, #4]
 158 0012 0294     		str	r4, [sp, #8]
 159 0014 0394     		str	r4, [sp, #12]
 160 0016 0494     		str	r4, [sp, #16]
 161 0018 0594     		str	r4, [sp, #20]
 117:Src/main.c    ****   RCC_OscInitStruct.HSIState = RCC_HSI_ON;
 162              		.loc 1 117 0
 163 001a 0223     		movs	r3, #2
 164 001c 0693     		str	r3, [sp, #24]
 118:Src/main.c    ****   RCC_OscInitStruct.HSICalibrationValue = RCC_HSICALIBRATION_DEFAULT;
 165              		.loc 1 118 0
 166 001e 0123     		movs	r3, #1
 167 0020 0A93     		str	r3, [sp, #40]
ARM GAS  C:\msys64\tmp\ccH6eqMr.s 			page 7


 119:Src/main.c    ****   RCC_OscInitStruct.PLL.PLLState = RCC_PLL_NONE;
 168              		.loc 1 119 0
 169 0022 1023     		movs	r3, #16
 170 0024 0B93     		str	r3, [sp, #44]
 121:Src/main.c    ****   {
 171              		.loc 1 121 0
 172 0026 06A8     		add	r0, sp, #24
 173 0028 FFF7FEFF 		bl	HAL_RCC_OscConfig
 174              	.LVL5:
 127:Src/main.c    ****                               |RCC_CLOCKTYPE_PCLK1|RCC_CLOCKTYPE_PCLK2;
 175              		.loc 1 127 0
 176 002c 0F23     		movs	r3, #15
 177 002e 0193     		str	r3, [sp, #4]
 129:Src/main.c    ****   RCC_ClkInitStruct.AHBCLKDivider = RCC_SYSCLK_DIV1;
 178              		.loc 1 129 0
 179 0030 0294     		str	r4, [sp, #8]
 130:Src/main.c    ****   RCC_ClkInitStruct.APB1CLKDivider = RCC_HCLK_DIV1;
 180              		.loc 1 130 0
 181 0032 0394     		str	r4, [sp, #12]
 131:Src/main.c    ****   RCC_ClkInitStruct.APB2CLKDivider = RCC_HCLK_DIV1;
 182              		.loc 1 131 0
 183 0034 0494     		str	r4, [sp, #16]
 132:Src/main.c    **** 
 184              		.loc 1 132 0
 185 0036 0594     		str	r4, [sp, #20]
 134:Src/main.c    ****   {
 186              		.loc 1 134 0
 187 0038 2146     		mov	r1, r4
 188 003a 01A8     		add	r0, sp, #4
 189 003c FFF7FEFF 		bl	HAL_RCC_ClockConfig
 190              	.LVL6:
 138:Src/main.c    **** 
 191              		.loc 1 138 0
 192 0040 10B0     		add	sp, sp, #64
 193              	.LCFI5:
 194              		.cfi_def_cfa_offset 8
 195              		@ sp needed
 196 0042 10BD     		pop	{r4, pc}
 197              		.cfi_endproc
 198              	.LFE67:
 200              		.section	.text.main,"ax",%progbits
 201              		.align	1
 202              		.global	main
 203              		.syntax unified
 204              		.thumb
 205              		.thumb_func
 206              		.fpu softvfp
 208              	main:
 209              	.LFB66:
  67:Src/main.c    ****   /* USER CODE BEGIN 1 */
 210              		.loc 1 67 0
 211              		.cfi_startproc
 212              		@ Volatile: function does not return.
 213              		@ args = 0, pretend = 0, frame = 0
 214              		@ frame_needed = 0, uses_anonymous_args = 0
 215 0000 08B5     		push	{r3, lr}
 216              	.LCFI6:
ARM GAS  C:\msys64\tmp\ccH6eqMr.s 			page 8


 217              		.cfi_def_cfa_offset 8
 218              		.cfi_offset 3, -8
 219              		.cfi_offset 14, -4
  76:Src/main.c    **** 
 220              		.loc 1 76 0
 221 0002 FFF7FEFF 		bl	HAL_Init
 222              	.LVL7:
  83:Src/main.c    **** 
 223              		.loc 1 83 0
 224 0006 FFF7FEFF 		bl	SystemClock_Config
 225              	.LVL8:
  90:Src/main.c    ****   /* USER CODE BEGIN 2 */
 226              		.loc 1 90 0
 227 000a FFF7FEFF 		bl	MX_GPIO_Init
 228              	.LVL9:
 229              	.L8:
 230 000e FEE7     		b	.L8
 231              		.cfi_endproc
 232              	.LFE66:
 234              		.section	.text.Error_Handler,"ax",%progbits
 235              		.align	1
 236              		.global	Error_Handler
 237              		.syntax unified
 238              		.thumb
 239              		.thumb_func
 240              		.fpu softvfp
 242              	Error_Handler:
 243              	.LFB69:
 174:Src/main.c    **** 
 175:Src/main.c    **** /* USER CODE BEGIN 4 */
 176:Src/main.c    **** 
 177:Src/main.c    **** /* USER CODE END 4 */
 178:Src/main.c    **** 
 179:Src/main.c    **** /**
 180:Src/main.c    ****   * @brief  This function is executed in case of error occurrence.
 181:Src/main.c    ****   * @retval None
 182:Src/main.c    ****   */
 183:Src/main.c    **** void Error_Handler(void)
 184:Src/main.c    **** {
 244              		.loc 1 184 0
 245              		.cfi_startproc
 246              		@ args = 0, pretend = 0, frame = 0
 247              		@ frame_needed = 0, uses_anonymous_args = 0
 248              		@ link register save eliminated.
 185:Src/main.c    ****   /* USER CODE BEGIN Error_Handler_Debug */
 186:Src/main.c    ****   /* User can add his own implementation to report the HAL error return state */
 187:Src/main.c    **** 
 188:Src/main.c    ****   /* USER CODE END Error_Handler_Debug */
 189:Src/main.c    **** }
 249              		.loc 1 189 0
 250 0000 7047     		bx	lr
 251              		.cfi_endproc
 252              	.LFE69:
 254              		.text
 255              	.Letext0:
 256              		.file 2 "c:\\tool\\gcc_7_2017-q4-major\\arm-none-eabi\\include\\machine\\_default_types.h"
 257              		.file 3 "c:\\tool\\gcc_7_2017-q4-major\\arm-none-eabi\\include\\sys\\_stdint.h"
ARM GAS  C:\msys64\tmp\ccH6eqMr.s 			page 9


 258              		.file 4 "Drivers/CMSIS/Include/core_cm3.h"
 259              		.file 5 "Drivers/CMSIS/Device/ST/STM32F1xx/Include/system_stm32f1xx.h"
 260              		.file 6 "Drivers/CMSIS/Device/ST/STM32F1xx/Include/stm32f103xe.h"
 261              		.file 7 "c:\\tool\\gcc_7_2017-q4-major\\arm-none-eabi\\include\\sys\\lock.h"
 262              		.file 8 "c:\\tool\\gcc_7_2017-q4-major\\arm-none-eabi\\include\\sys\\_types.h"
 263              		.file 9 "c:\\tool\\gcc_7_2017-q4-major\\lib\\gcc\\arm-none-eabi\\7.2.1\\include\\stddef.h"
 264              		.file 10 "c:\\tool\\gcc_7_2017-q4-major\\arm-none-eabi\\include\\sys\\reent.h"
 265              		.file 11 "Drivers/STM32F1xx_HAL_Driver/Inc/stm32f1xx_hal_rcc.h"
 266              		.file 12 "Drivers/STM32F1xx_HAL_Driver/Inc/stm32f1xx_hal_rcc_ex.h"
 267              		.file 13 "Drivers/STM32F1xx_HAL_Driver/Inc/stm32f1xx_hal_gpio.h"
 268              		.file 14 "Drivers/STM32F1xx_HAL_Driver/Inc/stm32f1xx_hal_def.h"
 269              		.file 15 "Drivers/STM32F1xx_HAL_Driver/Inc/stm32f1xx_hal.h"
 270              		.file 16 "<built-in>"
ARM GAS  C:\msys64\tmp\ccH6eqMr.s 			page 10

